; Function Attrs: nounwind uwtable
define dso_local range(i32 -1, 1) i32 @_PyInterpreterState_SetRunningMain(ptr noundef %0) local_unnamed_addr #1 {
  %2 = getelementptr inbounds nuw i8, ptr %0, i64 7352
  %3 = load atomic i64, ptr %2 monotonic, align 8
  %.not = icmp eq i64 %3, 0
  br i1 %.not, label %6, label %4

4:                                                ; preds = %1
  %5 = load ptr, ptr @PyExc_InterpreterError, align 8, !tbaa !211
  tail call void @PyErr_SetString(ptr noundef %5, ptr noundef nonnull @.str.10) #16
  br label %17

6:                                                ; preds = %1
  %7 = tail call align 8 ptr @llvm.threadlocal.address.p0(ptr align 8 @_Py_tss_tstate)
  %8 = load ptr, ptr %7, align 8, !tbaa !4
  %9 = icmp eq ptr %8, null
  br i1 %9, label %10, label %_Py_EnsureFuncTstateNotNULL.exit

10:                                               ; preds = %6
  tail call void @_Py_FatalErrorFunc(ptr noundef nonnull @__func__._PyInterpreterState_SetRunningMain, ptr noundef nonnull @.str.162) #17
  unreachable

_Py_EnsureFuncTstateNotNULL.exit:                 ; preds = %6
  %11 = getelementptr inbounds nuw i8, ptr %8, i64 16
  %12 = load ptr, ptr %11, align 8, !tbaa !221
  %.not7 = icmp eq ptr %12, %0
  br i1 %.not7, label %15, label %13

13:                                               ; preds = %_Py_EnsureFuncTstateNotNULL.exit
  %14 = load ptr, ptr @PyExc_RuntimeError, align 8, !tbaa !211
  tail call void @PyErr_SetString(ptr noundef %14, ptr noundef nonnull @.str.11) #16
  br label %17

15:                                               ; preds = %_Py_EnsureFuncTstateNotNULL.exit
  %16 = ptrtoint ptr %8 to i64
  store atomic i64 %16, ptr %2 monotonic, align 8
  br label %17

17:                                               ; preds = %13, %15, %4
  %.0 = phi i32 [ -1, %4 ], [ -1, %13 ], [ 0, %15 ]
  ret i32 %.0
}